target datalayout = "e-m:e-p270:32:32-p271:32:32-p272:64:64-i64:64-i128:128-f80:128-n8:16:32:64-S128"
target triple = "x86_64-pc-linux-gnu"

%"class.absl::str_format_internal::FormatConversionSpecImpl" = type { i8, i8, i8, i32, i32 }
%"class.std::basic_string_view" = type { i64, ptr }
%"class.absl::str_format_internal::FormatSinkImpl" = type { %"class.absl::str_format_internal::FormatRawSinkImpl", i64, ptr, [1024 x i8] }
%"class.absl::str_format_internal::FormatRawSinkImpl" = type { ptr, ptr }
%"struct.absl::str_format_internal::ArgConvertResult.43" = type { i8 }

; Function Attrs: mustprogress nounwind uwtable
define linkonce_odr dso_local void @_ZNSt17basic_string_viewIcSt11char_traitsIcEEC2EPKcm(ptr noundef nonnull align 8 dereferenceable(16) %0, ptr noundef %1, i64 noundef %2) unnamed_addr #3 comdat align 2 {
  %4 = alloca ptr, align 8
  %5 = alloca ptr, align 8
  %6 = alloca i64, align 8
  store ptr %0, ptr %4, align 8, !tbaa !104
  store ptr %1, ptr %5, align 8, !tbaa !35
  store i64 %2, ptr %6, align 8, !tbaa !26
  %7 = load ptr, ptr %4, align 8
  %8 = getelementptr inbounds nuw %"class.std::basic_string_view", ptr %7, i32 0, i32 0
  %9 = load i64, ptr %6, align 8, !tbaa !26
  store i64 %9, ptr %8, align 8, !tbaa !106
  %10 = getelementptr inbounds nuw %"class.std::basic_string_view", ptr %7, i32 0, i32 1
  %11 = load ptr, ptr %5, align 8, !tbaa !35
  store ptr %11, ptr %10, align 8, !tbaa !108
  ret void
}

; Function Attrs: mustprogress nounwind uwtable
define linkonce_odr dso_local noundef zeroext i1 @_ZN4absl19str_format_internal13FlagsContainsENS0_5FlagsES1_(i8 noundef zeroext %0, i8 noundef zeroext %1) #3 comdat {
  %3 = alloca i8, align 1
  %4 = alloca i8, align 1
  store i8 %0, ptr %3, align 1, !tbaa !13
  store i8 %1, ptr %4, align 1, !tbaa !13
  %5 = load i8, ptr %3, align 1, !tbaa !13
  %6 = zext i8 %5 to i32
  %7 = load i8, ptr %4, align 1, !tbaa !13
  %8 = zext i8 %7 to i32
  %9 = and i32 %6, %8
  %10 = load i8, ptr %4, align 1, !tbaa !13
  %11 = zext i8 %10 to i32
  %12 = icmp eq i32 %9, %11
  ret i1 %12
}

; Function Attrs: mustprogress nounwind uwtable
define linkonce_odr dso_local noundef ptr @_ZNKSt17basic_string_viewIcSt11char_traitsIcEE4dataEv(ptr noundef nonnull align 8 dereferenceable(16) %0) #3 comdat align 2 {
  %2 = alloca ptr, align 8
  store ptr %0, ptr %2, align 8, !tbaa !104
  %3 = load ptr, ptr %2, align 8
  %4 = getelementptr inbounds nuw %"class.std::basic_string_view", ptr %3, i32 0, i32 1
  %5 = load ptr, ptr %4, align 8, !tbaa !108
  ret ptr %5
}

; Function Attrs: mustprogress uwtable
define linkonce_odr dso_local void @_ZN4absl19str_format_internal17FormatRawSinkImpl5WriteESt17basic_string_viewIcSt11char_traitsIcEE(ptr noundef nonnull align 8 dereferenceable(16) %0, i64 %1, ptr %2) #0 comdat align 2 {
  %4 = alloca %"class.std::basic_string_view", align 8
  %5 = alloca ptr, align 8
  %6 = alloca %"class.std::basic_string_view", align 8
  %7 = getelementptr inbounds nuw { i64, ptr }, ptr %4, i32 0, i32 0
  store i64 %1, ptr %7, align 8
  %8 = getelementptr inbounds nuw { i64, ptr }, ptr %4, i32 0, i32 1
  store ptr %2, ptr %8, align 8
  store ptr %0, ptr %5, align 8, !tbaa !123
  %9 = load ptr, ptr %5, align 8
  %10 = getelementptr inbounds nuw %"class.absl::str_format_internal::FormatRawSinkImpl", ptr %9, i32 0, i32 1
  %11 = load ptr, ptr %10, align 8, !tbaa !125
  %12 = getelementptr inbounds nuw %"class.absl::str_format_internal::FormatRawSinkImpl", ptr %9, i32 0, i32 0
  %13 = load ptr, ptr %12, align 8, !tbaa !126
  call void @llvm.memcpy.p0.p0.i64(ptr align 8 %6, ptr align 8 %4, i64 16, i1 false), !tbaa.struct !48
  %14 = getelementptr inbounds nuw { i64, ptr }, ptr %6, i32 0, i32 0
  %15 = load i64, ptr %14, align 8
  %16 = getelementptr inbounds nuw { i64, ptr }, ptr %6, i32 0, i32 1
  %17 = load ptr, ptr %16, align 8
  call void %11(ptr noundef %13, i64 %15, ptr %17)
  ret void
}

; Function Attrs: mustprogress uwtable
define linkonce_odr dso_local void @_ZN4absl19str_format_internal14FormatSinkImpl5FlushEv(ptr noundef nonnull align 8 dereferenceable(1056) %0) #0 comdat align 2 {
  %2 = alloca ptr, align 8
  %3 = alloca %"class.std::basic_string_view", align 8
  store ptr %0, ptr %2, align 8, !tbaa !7
  %4 = load ptr, ptr %2, align 8
  %5 = getelementptr inbounds nuw %"class.absl::str_format_internal::FormatSinkImpl", ptr %4, i32 0, i32 0
  %6 = getelementptr inbounds nuw %"class.absl::str_format_internal::FormatSinkImpl", ptr %4, i32 0, i32 3
  %7 = getelementptr inbounds [1024 x i8], ptr %6, i64 0, i64 0
  %8 = getelementptr inbounds nuw %"class.absl::str_format_internal::FormatSinkImpl", ptr %4, i32 0, i32 2
  %9 = load ptr, ptr %8, align 8, !tbaa !49
  %10 = getelementptr inbounds nuw %"class.absl::str_format_internal::FormatSinkImpl", ptr %4, i32 0, i32 3
  %11 = getelementptr inbounds [1024 x i8], ptr %10, i64 0, i64 0
  %12 = ptrtoint ptr %9 to i64
  %13 = ptrtoint ptr %11 to i64
  %14 = sub i64 %12, %13
  call void @_ZNSt17basic_string_viewIcSt11char_traitsIcEEC2EPKcm(ptr noundef nonnull align 8 dereferenceable(16) %3, ptr noundef %7, i64 noundef %14) #16
  %15 = getelementptr inbounds nuw { i64, ptr }, ptr %3, i32 0, i32 0
  %16 = load i64, ptr %15, align 8
  %17 = getelementptr inbounds nuw { i64, ptr }, ptr %3, i32 0, i32 1
  %18 = load ptr, ptr %17, align 8
  call void @_ZN4absl19str_format_internal17FormatRawSinkImpl5WriteESt17basic_string_viewIcSt11char_traitsIcEE(ptr noundef nonnull align 8 dereferenceable(16) %5, i64 %16, ptr %18)
  %19 = getelementptr inbounds nuw %"class.absl::str_format_internal::FormatSinkImpl", ptr %4, i32 0, i32 3
  %20 = getelementptr inbounds [1024 x i8], ptr %19, i64 0, i64 0
  %21 = getelementptr inbounds nuw %"class.absl::str_format_internal::FormatSinkImpl", ptr %4, i32 0, i32 2
  store ptr %20, ptr %21, align 8, !tbaa !49
  ret void
}

; Function Attrs: mustprogress nounwind uwtable
define linkonce_odr dso_local noundef i64 @_ZNK4absl19str_format_internal14FormatSinkImpl5AvailEv(ptr noundef nonnull align 8 dereferenceable(1056) %0) #3 comdat align 2 {
  %2 = alloca ptr, align 8
  store ptr %0, ptr %2, align 8, !tbaa !7
  %3 = load ptr, ptr %2, align 8
  %4 = getelementptr inbounds nuw %"class.absl::str_format_internal::FormatSinkImpl", ptr %3, i32 0, i32 3
  %5 = getelementptr inbounds [1024 x i8], ptr %4, i64 0, i64 0
  %6 = getelementptr inbounds nuw i8, ptr %5, i64 1024
  %7 = getelementptr inbounds nuw %"class.absl::str_format_internal::FormatSinkImpl", ptr %3, i32 0, i32 2
  %8 = load ptr, ptr %7, align 8, !tbaa !49
  %9 = ptrtoint ptr %6 to i64
  %10 = ptrtoint ptr %8 to i64
  %11 = sub i64 %9, %10
  ret i64 %11
}

; Function Attrs: mustprogress nounwind uwtable
define linkonce_odr dso_local noundef i64 @_ZNKSt17basic_string_viewIcSt11char_traitsIcEE4sizeEv(ptr noundef nonnull align 8 dereferenceable(16) %0) #3 comdat align 2 {
  %2 = alloca ptr, align 8
  store ptr %0, ptr %2, align 8, !tbaa !104
  %3 = load ptr, ptr %2, align 8
  %4 = getelementptr inbounds nuw %"class.std::basic_string_view", ptr %3, i32 0, i32 0
  %5 = load i64, ptr %4, align 8, !tbaa !106
  ret i64 %5
}

; Function Attrs: mustprogress uwtable
define linkonce_odr dso_local noundef zeroext i1 @_ZNK4absl19str_format_internal24FormatConversionSpecImpl13has_left_flagEv(ptr noundef nonnull align 4 dereferenceable(12) %0) #0 comdat align 2 {
  %2 = alloca ptr, align 8
  store ptr %0, ptr %2, align 8, !tbaa !19
  %3 = load ptr, ptr %2, align 8
  %4 = getelementptr inbounds nuw %"class.absl::str_format_internal::FormatConversionSpecImpl", ptr %3, i32 0, i32 1
  %5 = load i8, ptr %4, align 1, !tbaa !44
  %6 = call noundef zeroext i1 @_ZN4absl19str_format_internal13FlagsContainsENS0_5FlagsES1_(i8 noundef zeroext %5, i8 noundef zeroext 1)
  ret i1 %6
}

; Function Attrs: mustprogress nounwind uwtable
define linkonce_odr dso_local noundef i32 @_ZNK4absl19str_format_internal24FormatConversionSpecImpl9precisionEv(ptr noundef nonnull align 4 dereferenceable(12) %0) #3 comdat align 2 {
  %2 = alloca ptr, align 8
  store ptr %0, ptr %2, align 8, !tbaa !19
  %3 = load ptr, ptr %2, align 8
  %4 = getelementptr inbounds nuw %"class.absl::str_format_internal::FormatConversionSpecImpl", ptr %3, i32 0, i32 4
  %5 = load i32, ptr %4, align 4, !tbaa !120
  ret i32 %5
}

; Function Attrs: mustprogress nounwind uwtable
define linkonce_odr dso_local noundef i32 @_ZNK4absl19str_format_internal24FormatConversionSpecImpl5widthEv(ptr noundef nonnull align 4 dereferenceable(12) %0) #3 comdat align 2 {
  %2 = alloca ptr, align 8
  store ptr %0, ptr %2, align 8, !tbaa !19
  %3 = load ptr, ptr %2, align 8
  %4 = getelementptr inbounds nuw %"class.absl::str_format_internal::FormatConversionSpecImpl", ptr %3, i32 0, i32 3
  %5 = load i32, ptr %4, align 4, !tbaa !127
  ret i32 %5
}

; Function Attrs: mustprogress uwtable
define linkonce_odr dso_local void @_ZN4absl19str_format_internal14FormatSinkImpl6AppendESt17basic_string_viewIcSt11char_traitsIcEE(ptr noundef nonnull align 8 dereferenceable(1056) %0, i64 %1, ptr %2) #0 comdat align 2 {
  %4 = alloca %"class.std::basic_string_view", align 8
  %5 = alloca ptr, align 8
  %6 = alloca i64, align 8
  %7 = alloca i32, align 4
  %8 = alloca %"class.std::basic_string_view", align 8
  %9 = getelementptr inbounds nuw { i64, ptr }, ptr %4, i32 0, i32 0
  store i64 %1, ptr %9, align 8
  %10 = getelementptr inbounds nuw { i64, ptr }, ptr %4, i32 0, i32 1
  store ptr %2, ptr %10, align 8
  store ptr %0, ptr %5, align 8, !tbaa !7
  %11 = load ptr, ptr %5, align 8
  call void @llvm.lifetime.start.p0(i64 8, ptr %6) #16
  %12 = call noundef i64 @_ZNKSt17basic_string_viewIcSt11char_traitsIcEE4sizeEv(ptr noundef nonnull align 8 dereferenceable(16) %4) #16
  store i64 %12, ptr %6, align 8, !tbaa !26
  %13 = load i64, ptr %6, align 8, !tbaa !26
  %14 = icmp eq i64 %13, 0
  br i1 %14, label %15, label %16

15:                                               ; preds = %3
  store i32 1, ptr %7, align 4
  br label %39

16:                                               ; preds = %3
  %17 = load i64, ptr %6, align 8, !tbaa !26
  %18 = getelementptr inbounds nuw %"class.absl::str_format_internal::FormatSinkImpl", ptr %11, i32 0, i32 1
  %19 = load i64, ptr %18, align 8, !tbaa !45
  %20 = add i64 %19, %17
  store i64 %20, ptr %18, align 8, !tbaa !45
  %21 = load i64, ptr %6, align 8, !tbaa !26
  %22 = call noundef i64 @_ZNK4absl19str_format_internal14FormatSinkImpl5AvailEv(ptr noundef nonnull align 8 dereferenceable(1056) %11)
  %23 = icmp uge i64 %21, %22
  br i1 %23, label %24, label %30

24:                                               ; preds = %16
  call void @_ZN4absl19str_format_internal14FormatSinkImpl5FlushEv(ptr noundef nonnull align 8 dereferenceable(1056) %11)
  %25 = getelementptr inbounds nuw %"class.absl::str_format_internal::FormatSinkImpl", ptr %11, i32 0, i32 0
  call void @llvm.memcpy.p0.p0.i64(ptr align 8 %8, ptr align 8 %4, i64 16, i1 false), !tbaa.struct !48
  %26 = getelementptr inbounds nuw { i64, ptr }, ptr %8, i32 0, i32 0
  %27 = load i64, ptr %26, align 8
  %28 = getelementptr inbounds nuw { i64, ptr }, ptr %8, i32 0, i32 1
  %29 = load ptr, ptr %28, align 8
  call void @_ZN4absl19str_format_internal17FormatRawSinkImpl5WriteESt17basic_string_viewIcSt11char_traitsIcEE(ptr noundef nonnull align 8 dereferenceable(16) %25, i64 %27, ptr %29)
  store i32 1, ptr %7, align 4
  br label %39

30:                                               ; preds = %16
  %31 = getelementptr inbounds nuw %"class.absl::str_format_internal::FormatSinkImpl", ptr %11, i32 0, i32 2
  %32 = load ptr, ptr %31, align 8, !tbaa !49
  %33 = call noundef ptr @_ZNKSt17basic_string_viewIcSt11char_traitsIcEE4dataEv(ptr noundef nonnull align 8 dereferenceable(16) %4) #16
  %34 = load i64, ptr %6, align 8, !tbaa !26
  call void @llvm.memcpy.p0.p0.i64(ptr align 1 %32, ptr align 1 %33, i64 %34, i1 false)
  %35 = load i64, ptr %6, align 8, !tbaa !26
  %36 = getelementptr inbounds nuw %"class.absl::str_format_internal::FormatSinkImpl", ptr %11, i32 0, i32 2
  %37 = load ptr, ptr %36, align 8, !tbaa !49
  %38 = getelementptr inbounds nuw i8, ptr %37, i64 %35
  store ptr %38, ptr %36, align 8, !tbaa !49
  store i32 0, ptr %7, align 4
  br label %39

39:                                               ; preds = %30, %24, %15
  call void @llvm.lifetime.end.p0(i64 8, ptr %6) #16
  %40 = load i32, ptr %7, align 4
  switch i32 %40, label %42 [
    i32 0, label %41
    i32 1, label %41
  ]

41:                                               ; preds = %39, %39
  ret void

42:                                               ; preds = %39
  unreachable
}

; Function Attrs: mustprogress nounwind uwtable
define linkonce_odr dso_local noundef zeroext i1 @_ZNK4absl19str_format_internal24FormatConversionSpecImpl8is_basicEv(ptr noundef nonnull align 4 dereferenceable(12) %0) #3 comdat align 2 {
  %2 = alloca ptr, align 8
  store ptr %0, ptr %2, align 8, !tbaa !19
  %3 = load ptr, ptr %2, align 8
  %4 = getelementptr inbounds nuw %"class.absl::str_format_internal::FormatConversionSpecImpl", ptr %3, i32 0, i32 1
  %5 = load i8, ptr %4, align 1, !tbaa !44
  %6 = icmp eq i8 %5, 0
  ret i1 %6
}

; Function Attrs: inlinehint mustprogress uwtable
define internal noundef zeroext i1 @_ZN4absl19str_format_internal12_GLOBAL__N_116ConvertStringArgESt17basic_string_viewIcSt11char_traitsIcEENS0_24FormatConversionSpecImplEPNS0_14FormatSinkImplE(i64 %0, ptr %1, i64 %2, i32 %3, ptr noundef %4) #7 {
  %6 = alloca i1, align 1
  %7 = alloca %"class.std::basic_string_view", align 8
  %8 = alloca %"class.absl::str_format_internal::FormatConversionSpecImpl", align 4
  %9 = alloca { i64, i32 }, align 4
  %10 = alloca ptr, align 8
  %11 = alloca %"class.std::basic_string_view", align 8
  %12 = alloca %"class.std::basic_string_view", align 8
  %13 = getelementptr inbounds nuw { i64, ptr }, ptr %7, i32 0, i32 0
  store i64 %0, ptr %13, align 8
  %14 = getelementptr inbounds nuw { i64, ptr }, ptr %7, i32 0, i32 1
  store ptr %1, ptr %14, align 8
  %15 = getelementptr inbounds nuw { i64, i32 }, ptr %9, i32 0, i32 0
  store i64 %2, ptr %15, align 4
  %16 = getelementptr inbounds nuw { i64, i32 }, ptr %9, i32 0, i32 1
  store i32 %3, ptr %16, align 4
  call void @llvm.memcpy.p0.p0.i64(ptr align 4 %8, ptr align 4 %9, i64 12, i1 false)
  store ptr %4, ptr %10, align 8, !tbaa !7
  %17 = call noundef zeroext i1 @_ZNK4absl19str_format_internal24FormatConversionSpecImpl8is_basicEv(ptr noundef nonnull align 4 dereferenceable(12) %8)
  br i1 %17, label %18, label %24

18:                                               ; preds = %5
  %19 = load ptr, ptr %10, align 8, !tbaa !7
  call void @llvm.memcpy.p0.p0.i64(ptr align 8 %11, ptr align 8 %7, i64 16, i1 false), !tbaa.struct !48
  %20 = getelementptr inbounds nuw { i64, ptr }, ptr %11, i32 0, i32 0
  %21 = load i64, ptr %20, align 8
  %22 = getelementptr inbounds nuw { i64, ptr }, ptr %11, i32 0, i32 1
  %23 = load ptr, ptr %22, align 8
  call void @_ZN4absl19str_format_internal14FormatSinkImpl6AppendESt17basic_string_viewIcSt11char_traitsIcEE(ptr noundef nonnull align 8 dereferenceable(1056) %19, i64 %21, ptr %23)
  store i1 true, ptr %6, align 1
  br label %34

24:                                               ; preds = %5
  %25 = load ptr, ptr %10, align 8, !tbaa !7
  call void @llvm.memcpy.p0.p0.i64(ptr align 8 %12, ptr align 8 %7, i64 16, i1 false), !tbaa.struct !48
  %26 = call noundef i32 @_ZNK4absl19str_format_internal24FormatConversionSpecImpl5widthEv(ptr noundef nonnull align 4 dereferenceable(12) %8)
  %27 = call noundef i32 @_ZNK4absl19str_format_internal24FormatConversionSpecImpl9precisionEv(ptr noundef nonnull align 4 dereferenceable(12) %8)
  %28 = call noundef zeroext i1 @_ZNK4absl19str_format_internal24FormatConversionSpecImpl13has_left_flagEv(ptr noundef nonnull align 4 dereferenceable(12) %8)
  %29 = getelementptr inbounds nuw { i64, ptr }, ptr %12, i32 0, i32 0
  %30 = load i64, ptr %29, align 8
  %31 = getelementptr inbounds nuw { i64, ptr }, ptr %12, i32 0, i32 1
  %32 = load ptr, ptr %31, align 8
  %33 = call noundef zeroext i1 @_ZN4absl19str_format_internal14FormatSinkImpl15PutPaddedStringESt17basic_string_viewIcSt11char_traitsIcEEiib(ptr noundef nonnull align 8 dereferenceable(1056) %25, i64 %30, ptr %32, i32 noundef %26, i32 noundef %27, i1 noundef zeroext %28)
  store i1 %33, ptr %6, align 1
  br label %34

34:                                               ; preds = %24, %18
  %35 = load i1, ptr %6, align 1
  ret i1 %35
}

; Function Attrs: mustprogress uwtable
define dso_local i8 @_ZN4absl19str_format_internal17FormatConvertImplESt17basic_string_viewIcSt11char_traitsIcEENS0_24FormatConversionSpecImplEPNS0_14FormatSinkImplE(i64 %0, ptr %1, i64 %2, i32 %3, ptr noundef %4) #0 {
  %6 = alloca %"struct.absl::str_format_internal::ArgConvertResult.43", align 1
  %7 = alloca %"class.std::basic_string_view", align 8
  %8 = alloca %"class.absl::str_format_internal::FormatConversionSpecImpl", align 4
  %9 = alloca { i64, i32 }, align 4
  %10 = alloca ptr, align 8
  %11 = alloca %"class.std::basic_string_view", align 8
  %12 = alloca %"class.absl::str_format_internal::FormatConversionSpecImpl", align 4
  %13 = alloca { i64, i32 }, align 4
  %14 = getelementptr inbounds nuw { i64, ptr }, ptr %7, i32 0, i32 0
  store i64 %0, ptr %14, align 8
  %15 = getelementptr inbounds nuw { i64, ptr }, ptr %7, i32 0, i32 1
  store ptr %1, ptr %15, align 8
  %16 = getelementptr inbounds nuw { i64, i32 }, ptr %9, i32 0, i32 0
  store i64 %2, ptr %16, align 4
  %17 = getelementptr inbounds nuw { i64, i32 }, ptr %9, i32 0, i32 1
  store i32 %3, ptr %17, align 4
  call void @llvm.memcpy.p0.p0.i64(ptr align 4 %8, ptr align 4 %9, i64 12, i1 false)
  store ptr %4, ptr %10, align 8, !tbaa !7
  %18 = getelementptr inbounds nuw %"struct.absl::str_format_internal::ArgConvertResult.43", ptr %6, i32 0, i32 0
  call void @llvm.memcpy.p0.p0.i64(ptr align 8 %11, ptr align 8 %7, i64 16, i1 false), !tbaa.struct !48
  call void @llvm.memcpy.p0.p0.i64(ptr align 4 %12, ptr align 4 %8, i64 12, i1 false), !tbaa.struct !10
  %19 = load ptr, ptr %10, align 8, !tbaa !7
  %20 = getelementptr inbounds nuw { i64, ptr }, ptr %11, i32 0, i32 0
  %21 = load i64, ptr %20, align 8
  %22 = getelementptr inbounds nuw { i64, ptr }, ptr %11, i32 0, i32 1
  %23 = load ptr, ptr %22, align 8
  call void @llvm.memcpy.p0.p0.i64(ptr align 4 %13, ptr align 4 %12, i64 12, i1 false)
  %24 = getelementptr inbounds nuw { i64, i32 }, ptr %13, i32 0, i32 0
  %25 = load i64, ptr %24, align 4
  %26 = getelementptr inbounds nuw { i64, i32 }, ptr %13, i32 0, i32 1
  %27 = load i32, ptr %26, align 4
  %28 = call noundef zeroext i1 @_ZN4absl19str_format_internal12_GLOBAL__N_116ConvertStringArgESt17basic_string_viewIcSt11char_traitsIcEENS0_24FormatConversionSpecImplEPNS0_14FormatSinkImplE(i64 %21, ptr %23, i64 %25, i32 %27, ptr noundef %19)
  %29 = zext i1 %28 to i8
  store i8 %29, ptr %18, align 1, !tbaa !95
  %30 = getelementptr inbounds nuw %"struct.absl::str_format_internal::ArgConvertResult.43", ptr %6, i32 0, i32 0
  %31 = load i8, ptr %30, align 1
  ret i8 %31
}