; Function Attrs: mustprogress uwtable
define dso_local range(i8 0, 2) i8 @_ZN4absl19str_format_internal17FormatConvertImplESt17basic_string_viewIcSt11char_traitsIcEENS0_24FormatConversionSpecImplEPNS0_14FormatSinkImplE(i64 %0, ptr %1, i64 %2, i32 %3, ptr noundef %4) local_unnamed_addr #0 {
  %.sroa.1.0.extract.shift.i = lshr i64 %2, 8
  %.sroa.1.0.extract.trunc.i = trunc i64 %.sroa.1.0.extract.shift.i to i8
  %6 = icmp eq i8 %.sroa.1.0.extract.trunc.i, 0
  br i1 %6, label %7, label %31

7:                                                ; preds = %5
  %8 = icmp eq i64 %0, 0
  br i1 %8, label %_ZN4absl19str_format_internal12_GLOBAL__N_116ConvertStringArgESt17basic_string_viewIcSt11char_traitsIcEENS0_24FormatConversionSpecImplEPNS0_14FormatSinkImplE.exit, label %9

9:                                                ; preds = %7
  %10 = getelementptr inbounds nuw i8, ptr %4, i64 16
  %11 = load i64, ptr %10, align 8, !tbaa !16
  %12 = add i64 %11, %0
  store i64 %12, ptr %10, align 8, !tbaa !16
  %13 = getelementptr inbounds nuw i8, ptr %4, i64 1056
  %14 = getelementptr inbounds nuw i8, ptr %4, i64 24
  %15 = load ptr, ptr %14, align 8, !tbaa !19
  %16 = ptrtoint ptr %13 to i64
  %17 = ptrtoint ptr %15 to i64
  %18 = sub i64 %16, %17
  %.not.i.i = icmp ult i64 %0, %18
  br i1 %.not.i.i, label %28, label %19

19:                                               ; preds = %9
  %20 = getelementptr inbounds nuw i8, ptr %4, i64 32
  %21 = ptrtoint ptr %20 to i64
  %22 = sub i64 %17, %21
  %23 = getelementptr inbounds nuw i8, ptr %4, i64 8
  %24 = load ptr, ptr %23, align 8, !tbaa !20
  %25 = load ptr, ptr %4, align 8, !tbaa !21
  tail call void %24(ptr noundef %25, i64 %22, ptr nonnull %20)
  store ptr %20, ptr %14, align 8, !tbaa !19
  %26 = load ptr, ptr %23, align 8, !tbaa !20
  %27 = load ptr, ptr %4, align 8, !tbaa !21
  tail call void %26(ptr noundef %27, i64 %0, ptr %1)
  br label %_ZN4absl19str_format_internal12_GLOBAL__N_116ConvertStringArgESt17basic_string_viewIcSt11char_traitsIcEENS0_24FormatConversionSpecImplEPNS0_14FormatSinkImplE.exit

28:                                               ; preds = %9
  tail call void @llvm.memcpy.p0.p0.i64(ptr align 1 %15, ptr align 1 %1, i64 %0, i1 false)
  %29 = load ptr, ptr %14, align 8, !tbaa !19
  %30 = getelementptr inbounds nuw i8, ptr %29, i64 %0
  store ptr %30, ptr %14, align 8, !tbaa !19
  br label %_ZN4absl19str_format_internal12_GLOBAL__N_116ConvertStringArgESt17basic_string_viewIcSt11char_traitsIcEENS0_24FormatConversionSpecImplEPNS0_14FormatSinkImplE.exit

31:                                               ; preds = %5
  %.sroa.310.0.extract.shift.i = lshr i64 %2, 32
  %.sroa.310.0.extract.trunc.i = trunc nuw i64 %.sroa.310.0.extract.shift.i to i32
  %32 = and i8 %.sroa.1.0.extract.trunc.i, 1
  %33 = icmp ne i8 %32, 0
  %34 = tail call noundef zeroext i1 @_ZN4absl19str_format_internal14FormatSinkImpl15PutPaddedStringESt17basic_string_viewIcSt11char_traitsIcEEiib(ptr noundef nonnull align 8 dereferenceable(1056) %4, i64 %0, ptr %1, i32 noundef %.sroa.310.0.extract.trunc.i, i32 noundef %3, i1 noundef zeroext %33)
  %35 = zext i1 %34 to i8
  br label %_ZN4absl19str_format_internal12_GLOBAL__N_116ConvertStringArgESt17basic_string_viewIcSt11char_traitsIcEENS0_24FormatConversionSpecImplEPNS0_14FormatSinkImplE.exit

_ZN4absl19str_format_internal12_GLOBAL__N_116ConvertStringArgESt17basic_string_viewIcSt11char_traitsIcEENS0_24FormatConversionSpecImplEPNS0_14FormatSinkImplE.exit: ; preds = %7, %19, %28, %31
  %.0.i = phi i8 [ %35, %31 ], [ 1, %7 ], [ 1, %19 ], [ 1, %28 ]
  ret i8 %.0.i
}